target datalayout = "e-m:e-p270:32:32-p271:32:32-p272:64:64-i64:64-i128:128-f80:128-n8:16:32:64-S128"
target triple = "x86_64-pc-linux-gnu"

%struct._packet_info = type { ptr, ptr, i32, i32, %struct.nstime_t, %struct.nstime_t, %struct.nstime_t, i8, ptr, ptr, ptr, ptr, %struct._address, %struct._address, %struct._address, %struct._address, %struct._address, %struct._address, i32, ptr, i8, [3 x i8], %struct.anon, i32, i32, i32, i32, ptr, i8, ptr, ptr, i16, i16, i32, i32, i16, i32, i32, ptr, ptr, ptr, i8, i8, i16, i16, i16, i32, i16, i16, ptr, ptr, ptr, ptr, ptr, i32, i32 }
%struct.nstime_t = type { i64, i32 }
%struct._address = type { i32, i32, ptr, ptr }
%struct.anon = type { i8, [3 x i8] }
%struct._xmpp_attr_t = type { ptr, ptr, i32, i32, i8 }
%struct._frame_data = type <{ i32, i32, i32, i32, i32, [4 x i8], i64, ptr, ptr, ptr, i8, i16, [5 x i8], %struct.nstime_t, %struct.nstime_t, i32, i32 }>
%struct._xmpp_conv_info_t = type { ptr, ptr, ptr, ptr, i32 }
%struct._xmpp_element_t = type { ptr, ptr, ptr, ptr, ptr, ptr, i32, i32, i8 }
%struct._GList = type { ptr, ptr, ptr }

@.str = private unnamed_addr constant [3 x i8] c"id\00", align 1
@.str.2 = private unnamed_addr constant [4 x i8] c"sid\00", align 1
@.str.6 = private unnamed_addr constant [8 x i8] c"message\00", align 1
@.str.7 = private unnamed_addr constant [5 x i8] c"data\00", align 1
@.str.8 = private unnamed_addr constant [3 x i8] c"iq\00", align 1
@.str.9 = private unnamed_addr constant [5 x i8] c"open\00", align 1
@.str.10 = private unnamed_addr constant [6 x i8] c"close\00", align 1

; Function Attrs: null_pointer_is_valid sspstrong uwtable
define hidden ptr @xmpp_get_attr(ptr noundef %0, ptr noundef %1) #0 {
  %3 = alloca ptr, align 8
  %4 = alloca ptr, align 8
  %5 = alloca ptr, align 8
  store ptr %0, ptr %3, align 8
  store ptr %1, ptr %4, align 8
  call void @llvm.lifetime.start.p0(i64 8, ptr %5) #8
  %6 = load ptr, ptr %3, align 8
  %7 = getelementptr inbounds nuw %struct._xmpp_element_t, ptr %6, i32 0, i32 3
  %8 = load ptr, ptr %7, align 8
  %9 = load ptr, ptr %4, align 8
  %10 = call ptr @g_hash_table_lookup(ptr noundef %8, ptr noundef %9)
  store ptr %10, ptr %5, align 8
  %11 = load ptr, ptr %5, align 8
  %12 = icmp ne ptr %11, null
  br i1 %12, label %19, label %13

13:                                               ; preds = %2
  %14 = load ptr, ptr %3, align 8
  %15 = getelementptr inbounds nuw %struct._xmpp_element_t, ptr %14, i32 0, i32 3
  %16 = load ptr, ptr %15, align 8
  %17 = load ptr, ptr %4, align 8
  %18 = call ptr @g_hash_table_find(ptr noundef %16, ptr noundef @attr_find_pred, ptr noundef %17)
  store ptr %18, ptr %5, align 8
  br label %19

19:                                               ; preds = %13, %2
  %20 = load ptr, ptr %5, align 8
  %21 = icmp ne ptr %20, null
  br i1 %21, label %22, label %25

22:                                               ; preds = %19
  %23 = load ptr, ptr %5, align 8
  %24 = getelementptr inbounds nuw %struct._xmpp_attr_t, ptr %23, i32 0, i32 4
  store i8 1, ptr %24, align 8
  br label %25

25:                                               ; preds = %22, %19
  %26 = load ptr, ptr %5, align 8
  call void @llvm.lifetime.end.p0(i64 8, ptr %5) #8
  ret ptr %26
}

; Function Attrs: null_pointer_is_valid sspstrong uwtable
define internal ptr @xmpp_find_element_by_name(ptr noundef %0, ptr noundef %1) #0 {
  %3 = alloca ptr, align 8
  %4 = alloca ptr, align 8
  %5 = alloca ptr, align 8
  %6 = alloca ptr, align 8
  %7 = alloca ptr, align 8
  %8 = alloca i32, align 4
  store ptr %0, ptr %4, align 8
  store ptr %1, ptr %5, align 8
  call void @llvm.lifetime.start.p0(i64 8, ptr %6) #8
  call void @llvm.lifetime.start.p0(i64 8, ptr %7) #8
  %9 = call ptr @wmem_packet_scope()
  %10 = call noalias ptr @wmem_alloc(ptr noundef %9, i64 noundef 64) #9
  store ptr %10, ptr %7, align 8
  %11 = call ptr @wmem_packet_scope()
  %12 = load ptr, ptr %5, align 8
  %13 = call noalias ptr @wmem_strdup(ptr noundef %11, ptr noundef %12)
  %14 = load ptr, ptr %7, align 8
  %15 = getelementptr inbounds nuw %struct._xmpp_element_t, ptr %14, i32 0, i32 0
  store ptr %13, ptr %15, align 8
  %16 = load ptr, ptr %4, align 8
  %17 = getelementptr inbounds nuw %struct._xmpp_element_t, ptr %16, i32 0, i32 4
  %18 = load ptr, ptr %17, align 8
  %19 = load ptr, ptr %7, align 8
  %20 = call ptr @g_list_find_custom(ptr noundef %18, ptr noundef %19, ptr noundef @xmpp_element_t_cmp)
  store ptr %20, ptr %6, align 8
  %21 = load ptr, ptr %6, align 8
  %22 = icmp ne ptr %21, null
  br i1 %22, label %23, label %25

23:                                               ; preds = %2
  %24 = load ptr, ptr %6, align 8
  store ptr %24, ptr %3, align 8
  store i32 1, ptr %8, align 4
  br label %26

25:                                               ; preds = %2
  store ptr null, ptr %3, align 8
  store i32 1, ptr %8, align 4
  br label %26

26:                                               ; preds = %25, %23
  call void @llvm.lifetime.end.p0(i64 8, ptr %7) #8
  call void @llvm.lifetime.end.p0(i64 8, ptr %6) #8
  %27 = load ptr, ptr %3, align 8
  ret ptr %27
}

; Function Attrs: null_pointer_is_valid sspstrong uwtable
define hidden void @xmpp_ibb_session_track(ptr noundef %0, ptr noundef %1, ptr noundef %2) #0 {
  %4 = alloca ptr, align 8
  %5 = alloca ptr, align 8
  %6 = alloca ptr, align 8
  %7 = alloca ptr, align 8
  %8 = alloca ptr, align 8
  %9 = alloca ptr, align 8
  %10 = alloca ptr, align 8
  %11 = alloca ptr, align 8
  %12 = alloca ptr, align 8
  store ptr %0, ptr %4, align 8
  store ptr %1, ptr %5, align 8
  store ptr %2, ptr %6, align 8
  call void @llvm.lifetime.start.p0(i64 8, ptr %7) #8
  store ptr null, ptr %7, align 8
  call void @llvm.lifetime.start.p0(i64 8, ptr %8) #8
  %13 = load ptr, ptr %5, align 8
  %14 = getelementptr inbounds nuw %struct._xmpp_element_t, ptr %13, i32 0, i32 0
  %15 = load ptr, ptr %14, align 8
  %16 = call i32 @strcmp(ptr noundef %15, ptr noundef @.str.6) #10
  %17 = icmp eq i32 %16, 0
  br i1 %17, label %18, label %30

18:                                               ; preds = %3
  %19 = load ptr, ptr %5, align 8
  %20 = call ptr @xmpp_find_element_by_name(ptr noundef %19, ptr noundef @.str.7)
  store ptr %20, ptr %8, align 8
  %21 = load ptr, ptr %8, align 8
  %22 = icmp ne ptr %21, null
  br i1 %22, label %23, label %27

23:                                               ; preds = %18
  %24 = load ptr, ptr %8, align 8
  %25 = getelementptr inbounds nuw %struct._GList, ptr %24, i32 0, i32 0
  %26 = load ptr, ptr %25, align 8
  br label %28

27:                                               ; preds = %18
  br label %28

28:                                               ; preds = %27, %23
  %29 = phi ptr [ %26, %23 ], [ null, %27 ]
  store ptr %29, ptr %7, align 8
  br label %61

30:                                               ; preds = %3
  %31 = load ptr, ptr %5, align 8
  %32 = getelementptr inbounds nuw %struct._xmpp_element_t, ptr %31, i32 0, i32 0
  %33 = load ptr, ptr %32, align 8
  %34 = call i32 @strcmp(ptr noundef %33, ptr noundef @.str.8) #10
  %35 = icmp eq i32 %34, 0
  br i1 %35, label %36, label %60

36:                                               ; preds = %30
  %37 = load ptr, ptr %5, align 8
  %38 = call ptr @xmpp_find_element_by_name(ptr noundef %37, ptr noundef @.str.9)
  store ptr %38, ptr %8, align 8
  %39 = load ptr, ptr %8, align 8
  %40 = icmp ne ptr %39, null
  br i1 %40, label %44, label %41

41:                                               ; preds = %36
  %42 = load ptr, ptr %5, align 8
  %43 = call ptr @xmpp_find_element_by_name(ptr noundef %42, ptr noundef @.str.10)
  store ptr %43, ptr %8, align 8
  br label %44

44:                                               ; preds = %41, %36
  %45 = load ptr, ptr %8, align 8
  %46 = icmp ne ptr %45, null
  br i1 %46, label %50, label %47

47:                                               ; preds = %44
  %48 = load ptr, ptr %5, align 8
  %49 = call ptr @xmpp_find_element_by_name(ptr noundef %48, ptr noundef @.str.7)
  store ptr %49, ptr %8, align 8
  br label %50

50:                                               ; preds = %47, %44
  %51 = load ptr, ptr %8, align 8
  %52 = icmp ne ptr %51, null
  br i1 %52, label %53, label %57

53:                                               ; preds = %50
  %54 = load ptr, ptr %8, align 8
  %55 = getelementptr inbounds nuw %struct._GList, ptr %54, i32 0, i32 0
  %56 = load ptr, ptr %55, align 8
  br label %58

57:                                               ; preds = %50
  br label %58

58:                                               ; preds = %57, %53
  %59 = phi ptr [ %56, %53 ], [ null, %57 ]
  store ptr %59, ptr %7, align 8
  br label %60

60:                                               ; preds = %58, %30
  br label %61

61:                                               ; preds = %60, %28
  %62 = load ptr, ptr %7, align 8
  %63 = icmp ne ptr %62, null
  br i1 %63, label %64, label %101

64:                                               ; preds = %61
  %65 = load ptr, ptr %4, align 8
  %66 = getelementptr inbounds nuw %struct._packet_info, ptr %65, i32 0, i32 8
  %67 = load ptr, ptr %66, align 8
  %68 = getelementptr inbounds nuw %struct._frame_data, ptr %67, i32 0, i32 11
  %69 = load i16, ptr %68, align 1
  %70 = lshr i16 %69, 3
  %71 = and i16 %70, 1
  %72 = zext i16 %71 to i32
  %73 = icmp ne i32 %72, 0
  br i1 %73, label %101, label %74

74:                                               ; preds = %64
  call void @llvm.lifetime.start.p0(i64 8, ptr %9) #8
  call void @llvm.lifetime.start.p0(i64 8, ptr %10) #8
  call void @llvm.lifetime.start.p0(i64 8, ptr %11) #8
  call void @llvm.lifetime.start.p0(i64 8, ptr %12) #8
  %75 = load ptr, ptr %5, align 8
  %76 = call ptr @xmpp_get_attr(ptr noundef %75, ptr noundef @.str)
  store ptr %76, ptr %9, align 8
  %77 = load ptr, ptr %7, align 8
  %78 = call ptr @xmpp_get_attr(ptr noundef %77, ptr noundef @.str.2)
  store ptr %78, ptr %10, align 8
  %79 = load ptr, ptr %9, align 8
  %80 = icmp ne ptr %79, null
  br i1 %80, label %81, label %100

81:                                               ; preds = %74
  %82 = load ptr, ptr %10, align 8
  %83 = icmp ne ptr %82, null
  br i1 %83, label %84, label %100

84:                                               ; preds = %81
  %85 = call ptr @wmem_file_scope()
  %86 = load ptr, ptr %9, align 8
  %87 = getelementptr inbounds nuw %struct._xmpp_attr_t, ptr %86, i32 0, i32 0
  %88 = load ptr, ptr %87, align 8
  %89 = call noalias ptr @wmem_strdup(ptr noundef %85, ptr noundef %88)
  store ptr %89, ptr %11, align 8
  %90 = call ptr @wmem_file_scope()
  %91 = load ptr, ptr %10, align 8
  %92 = getelementptr inbounds nuw %struct._xmpp_attr_t, ptr %91, i32 0, i32 0
  %93 = load ptr, ptr %92, align 8
  %94 = call noalias ptr @wmem_strdup(ptr noundef %90, ptr noundef %93)
  store ptr %94, ptr %12, align 8
  %95 = load ptr, ptr %6, align 8
  %96 = getelementptr inbounds nuw %struct._xmpp_conv_info_t, ptr %95, i32 0, i32 2
  %97 = load ptr, ptr %96, align 8
  %98 = load ptr, ptr %11, align 8
  %99 = load ptr, ptr %12, align 8
  call void @wmem_tree_insert_string(ptr noundef %97, ptr noundef %98, ptr noundef %99, i32 noundef 1)
  br label %100

100:                                              ; preds = %84, %81, %74
  call void @llvm.lifetime.end.p0(i64 8, ptr %12) #8
  call void @llvm.lifetime.end.p0(i64 8, ptr %11) #8
  call void @llvm.lifetime.end.p0(i64 8, ptr %10) #8
  call void @llvm.lifetime.end.p0(i64 8, ptr %9) #8
  br label %101

101:                                              ; preds = %100, %64, %61
  call void @llvm.lifetime.end.p0(i64 8, ptr %8) #8
  call void @llvm.lifetime.end.p0(i64 8, ptr %7) #8
  ret void
}