; Function Attrs: null_pointer_is_valid sspstrong uwtable
define hidden void @xmpp_ibb_session_track(ptr noundef readonly captures(none) %0, ptr noundef readonly captures(none) %1, ptr noundef readonly captures(none) %2) local_unnamed_addr #0 {
  %4 = load ptr, ptr %1, align 8
  %5 = tail call i32 @strcmp(ptr noundef %4, ptr noundef nonnull dereferenceable(8) @.str.6) #11
  %6 = icmp eq i32 %5, 0
  br i1 %6, label %7, label %sub_0

7:                                                ; preds = %3
  %8 = tail call ptr @wmem_packet_scope()
  %9 = tail call noalias dereferenceable_or_null(64) ptr @wmem_alloc(ptr noundef %8, i64 noundef 64) #10
  %10 = tail call ptr @wmem_packet_scope()
  %11 = tail call noalias ptr @wmem_strdup(ptr noundef %10, ptr noundef nonnull @.str.7)
  store ptr %11, ptr %9, align 8
  %12 = getelementptr inbounds nuw i8, ptr %1, i64 32
  %13 = load ptr, ptr %12, align 8
  %14 = tail call ptr @g_list_find_custom(ptr noundef %13, ptr noundef %9, ptr noundef nonnull @xmpp_element_t_cmp)
  %.not31 = icmp eq ptr %14, null
  br i1 %.not31, label %.thread47, label %.thread42

sub_0:                                            ; preds = %3
  %15 = load i8, ptr %4, align 1
  %.not53 = icmp eq i8 %15, 105
  br i1 %.not53, label %sub_1, label %.thread47

sub_1:                                            ; preds = %sub_0
  %16 = getelementptr inbounds nuw i8, ptr %4, i64 1
  %17 = load i8, ptr %16, align 1
  %.not54 = icmp eq i8 %17, 113
  br i1 %.not54, label %.tail, label %.thread47

.tail:                                            ; preds = %sub_1
  %18 = getelementptr inbounds nuw i8, ptr %4, i64 2
  %19 = load i8, ptr %18, align 1
  %20 = icmp eq i8 %19, 0
  br i1 %20, label %21, label %.thread47

21:                                               ; preds = %.tail
  %22 = tail call ptr @wmem_packet_scope()
  %23 = tail call noalias dereferenceable_or_null(64) ptr @wmem_alloc(ptr noundef %22, i64 noundef 64) #10
  %24 = tail call ptr @wmem_packet_scope()
  %25 = tail call noalias ptr @wmem_strdup(ptr noundef %24, ptr noundef nonnull @.str.9)
  store ptr %25, ptr %23, align 8
  %26 = getelementptr inbounds nuw i8, ptr %1, i64 32
  %27 = load ptr, ptr %26, align 8
  %28 = tail call ptr @g_list_find_custom(ptr noundef %27, ptr noundef %23, ptr noundef nonnull @xmpp_element_t_cmp)
  %.not = icmp eq ptr %28, null
  br i1 %.not, label %29, label %.thread42

29:                                               ; preds = %21
  %30 = tail call ptr @wmem_packet_scope()
  %31 = tail call noalias dereferenceable_or_null(64) ptr @wmem_alloc(ptr noundef %30, i64 noundef 64) #10
  %32 = tail call ptr @wmem_packet_scope()
  %33 = tail call noalias ptr @wmem_strdup(ptr noundef %32, ptr noundef nonnull @.str.10)
  store ptr %33, ptr %31, align 8
  %34 = load ptr, ptr %26, align 8
  %35 = tail call ptr @g_list_find_custom(ptr noundef %34, ptr noundef %31, ptr noundef nonnull @xmpp_element_t_cmp)
  %.not29 = icmp eq ptr %35, null
  br i1 %.not29, label %36, label %.thread42

36:                                               ; preds = %29
  %37 = tail call ptr @wmem_packet_scope()
  %38 = tail call noalias dereferenceable_or_null(64) ptr @wmem_alloc(ptr noundef %37, i64 noundef 64) #10
  %39 = tail call ptr @wmem_packet_scope()
  %40 = tail call noalias ptr @wmem_strdup(ptr noundef %39, ptr noundef nonnull @.str.7)
  store ptr %40, ptr %38, align 8
  %41 = load ptr, ptr %26, align 8
  %42 = tail call ptr @g_list_find_custom(ptr noundef %41, ptr noundef %38, ptr noundef nonnull @xmpp_element_t_cmp)
  %.not30 = icmp eq ptr %42, null
  br i1 %.not30, label %.thread47, label %.thread42

.thread42:                                        ; preds = %36, %29, %21, %7
  %.0.in = phi ptr [ %14, %7 ], [ %42, %36 ], [ %35, %29 ], [ %28, %21 ]
  %.0 = load ptr, ptr %.0.in, align 8
  %.not32 = icmp eq ptr %.0, null
  br i1 %.not32, label %.thread47, label %43

43:                                               ; preds = %.thread42
  %44 = getelementptr inbounds nuw i8, ptr %0, i64 80
  %45 = load ptr, ptr %44, align 8
  %46 = getelementptr inbounds nuw i8, ptr %45, i64 57
  %47 = load i16, ptr %46, align 1
  %48 = and i16 %47, 8
  %.not33 = icmp eq i16 %48, 0
  br i1 %.not33, label %49, label %.thread47

49:                                               ; preds = %43
  %50 = getelementptr inbounds nuw i8, ptr %1, i64 24
  %51 = load ptr, ptr %50, align 8
  %52 = tail call ptr @g_hash_table_lookup(ptr noundef %51, ptr noundef nonnull @.str)
  %.not.i = icmp eq ptr %52, null
  br i1 %.not.i, label %53, label %.thread.i

53:                                               ; preds = %49
  %54 = load ptr, ptr %50, align 8
  %55 = tail call ptr @g_hash_table_find(ptr noundef %54, ptr noundef nonnull @attr_find_pred, ptr noundef nonnull @.str)
  %.not9.i = icmp eq ptr %55, null
  br i1 %.not9.i, label %xmpp_get_attr.exit, label %.thread.i

.thread.i:                                        ; preds = %53, %49
  %.012.i = phi ptr [ %55, %53 ], [ %52, %49 ]
  %56 = getelementptr inbounds nuw i8, ptr %.012.i, i64 24
  store i8 1, ptr %56, align 8
  br label %xmpp_get_attr.exit

xmpp_get_attr.exit:                               ; preds = %53, %.thread.i
  %.013.i = phi ptr [ %.012.i, %.thread.i ], [ null, %53 ]
  %57 = getelementptr inbounds nuw i8, ptr %.0, i64 24
  %58 = load ptr, ptr %57, align 8
  %59 = tail call ptr @g_hash_table_lookup(ptr noundef %58, ptr noundef nonnull @.str.2)
  %.not.i34 = icmp eq ptr %59, null
  br i1 %.not.i34, label %60, label %xmpp_get_attr.exit39

60:                                               ; preds = %xmpp_get_attr.exit
  %61 = load ptr, ptr %57, align 8
  %62 = tail call ptr @g_hash_table_find(ptr noundef %61, ptr noundef nonnull @attr_find_pred, ptr noundef nonnull @.str.2)
  %.not9.i38 = icmp eq ptr %62, null
  br i1 %.not9.i38, label %.thread47, label %xmpp_get_attr.exit39

xmpp_get_attr.exit39:                             ; preds = %xmpp_get_attr.exit, %60
  %.012.i36 = phi ptr [ %62, %60 ], [ %59, %xmpp_get_attr.exit ]
  %63 = getelementptr inbounds nuw i8, ptr %.012.i36, i64 24
  store i8 1, ptr %63, align 8
  %.not52 = icmp eq ptr %.013.i, null
  br i1 %.not52, label %.thread47, label %64

64:                                               ; preds = %xmpp_get_attr.exit39
  %65 = tail call ptr @wmem_file_scope()
  %66 = load ptr, ptr %.013.i, align 8
  %67 = tail call noalias ptr @wmem_strdup(ptr noundef %65, ptr noundef %66)
  %68 = tail call ptr @wmem_file_scope()
  %69 = load ptr, ptr %.012.i36, align 8
  %70 = tail call noalias ptr @wmem_strdup(ptr noundef %68, ptr noundef %69)
  %71 = getelementptr inbounds nuw i8, ptr %2, i64 16
  %72 = load ptr, ptr %71, align 8
  tail call void @wmem_tree_insert_string(ptr noundef %72, ptr noundef %67, ptr noundef %70, i32 noundef 1)
  br label %.thread47

.thread47:                                        ; preds = %sub_1, %sub_0, %60, %36, %7, %.tail, %xmpp_get_attr.exit39, %64, %43, %.thread42
  ret void
}